; Function Attrs: nounwind uwtable
define hidden void @zif_func_num_args(ptr noundef readonly captures(none) %0, ptr noundef writeonly captures(none) %1) #0 {
  %3 = getelementptr inbounds nuw i8, ptr %0, i64 48
  %4 = load ptr, ptr %3, align 8, !tbaa !86
  %5 = getelementptr inbounds nuw i8, ptr %0, i64 44
  %6 = load i32, ptr %5, align 4, !tbaa !28
  %.not = icmp eq i32 %6, 0
  br i1 %.not, label %8, label %7, !prof !69

7:                                                ; preds = %2
  tail call void @zend_wrong_parameters_none_error() #14
  br label %48

8:                                                ; preds = %2
  %.not11 = icmp eq ptr %4, null
  br i1 %.not11, label %16, label %9

9:                                                ; preds = %8
  %10 = getelementptr inbounds nuw i8, ptr %4, i64 40
  %11 = load i32, ptr %10, align 8, !tbaa !28
  %12 = and i32 %11, 65536
  %.not12 = icmp eq i32 %12, 0
  br i1 %.not12, label %16, label %13

13:                                               ; preds = %9
  tail call void (ptr, ptr, ...) @zend_throw_error(ptr noundef null, ptr noundef nonnull @.str.16) #14
  %14 = load ptr, ptr getelementptr inbounds nuw (i8, ptr @executor_globals, i64 960), align 8, !tbaa !67
  %15 = icmp ne ptr %14, null
  tail call void @llvm.assume(i1 %15)
  br label %48

16:                                               ; preds = %9, %8
  %17 = load ptr, ptr getelementptr inbounds nuw (i8, ptr @executor_globals, i64 512), align 8, !tbaa !88, !nonnull !74, !noundef !74
  %18 = getelementptr inbounds nuw i8, ptr %17, i64 24
  %19 = load ptr, ptr %18, align 8, !tbaa !89
  %20 = icmp ne ptr %19, null
  tail call void @llvm.assume(i1 %20)
  %21 = getelementptr inbounds nuw i8, ptr %17, i64 40
  %22 = load i32, ptr %21, align 8, !tbaa !28
  %23 = and i32 %22, 33554432
  %.not.i = icmp eq i32 %23, 0
  br i1 %.not.i, label %zend_forbid_dynamic_call.exit, label %24

24:                                               ; preds = %16
  %25 = tail call ptr @get_active_function_or_method_name() #14
  %26 = getelementptr inbounds nuw i8, ptr %25, i64 16
  %27 = load i64, ptr %26, align 8, !tbaa !65
  %28 = trunc i64 %27 to i32
  %29 = getelementptr inbounds nuw i8, ptr %25, i64 24
  tail call void (ptr, ptr, ...) @zend_throw_error(ptr noundef null, ptr noundef nonnull @.str.197, i32 noundef %28, ptr noundef nonnull %29) #14
  %30 = getelementptr inbounds nuw i8, ptr %25, i64 4
  %31 = load i32, ptr %30, align 4, !tbaa !28
  %32 = and i32 %31, 64
  %.not.i13 = icmp eq i32 %32, 0
  br i1 %.not.i13, label %33, label %42

33:                                               ; preds = %24
  %34 = load i32, ptr %25, align 4, !tbaa !30
  %35 = icmp ne i32 %34, 0
  tail call void @llvm.assume(i1 %35)
  %36 = add i32 %34, -1
  store i32 %36, ptr %25, align 4, !tbaa !30
  %37 = icmp eq i32 %36, 0
  br i1 %37, label %38, label %42

38:                                               ; preds = %33
  %39 = and i32 %31, 128
  %.not5.i = icmp eq i32 %39, 0
  br i1 %.not5.i, label %41, label %40

40:                                               ; preds = %38
  tail call void @free(ptr noundef nonnull %25) #14
  br label %42

41:                                               ; preds = %38
  tail call void @_efree(ptr noundef nonnull %25) #14
  br label %42

42:                                               ; preds = %24, %33, %40, %41
  store i64 -1, ptr %1, align 8, !tbaa !28
  %43 = getelementptr inbounds nuw i8, ptr %1, i64 8
  store i32 4, ptr %43, align 8, !tbaa !28
  br label %48

zend_forbid_dynamic_call.exit:                    ; preds = %16
  %44 = getelementptr inbounds nuw i8, ptr %4, i64 44
  %45 = load i32, ptr %44, align 4, !tbaa !28
  %46 = zext i32 %45 to i64
  store i64 %46, ptr %1, align 8, !tbaa !28
  %47 = getelementptr inbounds nuw i8, ptr %1, i64 8
  store i32 4, ptr %47, align 8, !tbaa !28
  br label %48

48:                                               ; preds = %zend_forbid_dynamic_call.exit, %42, %13, %7
  ret void
}